; Function Attrs: mustprogress uwtable
define hidden void @_ZN11proto_model22complete_partial_funcsEb(ptr noundef nonnull align 8 dereferenceable(177) %this, i1 noundef zeroext %use_fresh) local_unnamed_addr #3 align 2 {
entry:
  %m_model_partial = getelementptr inbounds i8, ptr %this, i64 176
  %0 = load i8, ptr %m_model_partial, align 8
  %1 = and i8 %0, 1
  %tobool.not = icmp eq i8 %1, 0
  br i1 %tobool.not, label %for.cond.preheader, label %for.end

for.cond.preheader:                               ; preds = %entry
  %m_func_decls = getelementptr inbounds i8, ptr %this, i64 88
  br label %for.cond

for.cond:                                         ; preds = %for.cond.preheader, %for.body
  %indvars.iv = phi i64 [ 0, %for.cond.preheader ], [ %indvars.iv.next, %for.body ]
  %2 = load ptr, ptr %m_func_decls, align 8
  %cmp.i = icmp eq ptr %2, null
  br i1 %cmp.i, label %_ZNK6vectorIP9func_declLb0EjE4sizeEv.exit, label %if.end.i

if.end.i:                                         ; preds = %for.cond
  %arrayidx.i = getelementptr inbounds i8, ptr %2, i64 -4
  %3 = load i32, ptr %arrayidx.i, align 4
  br label %_ZNK6vectorIP9func_declLb0EjE4sizeEv.exit

_ZNK6vectorIP9func_declLb0EjE4sizeEv.exit:        ; preds = %for.cond, %if.end.i
  %retval.0.i = phi i32 [ %3, %if.end.i ], [ 0, %for.cond ]
  %4 = zext i32 %retval.0.i to i64
  %cmp = icmp ult i64 %indvars.iv, %4
  br i1 %cmp, label %for.body, label %for.end

for.body:                                         ; preds = %_ZNK6vectorIP9func_declLb0EjE4sizeEv.exit
  %arrayidx.i3 = getelementptr inbounds ptr, ptr %2, i64 %indvars.iv
  %5 = load ptr, ptr %arrayidx.i3, align 8
  tail call void @_ZN11proto_model21complete_partial_funcEP9func_declb(ptr noundef nonnull align 8 dereferenceable(177) %this, ptr noundef %5, i1 noundef zeroext %use_fresh)
  %indvars.iv.next = add nuw nsw i64 %indvars.iv, 1
  br label %for.cond, !llvm.loop !25

for.end:                                          ; preds = %_ZNK6vectorIP9func_declLb0EjE4sizeEv.exit, %entry
  ret void
}